; Function Attrs: nounwind uwtable
define noalias nonnull ptr @l_IO_withStdin___at___private_Lake_Build_Target_Fetch_0__Lake_PartialBuildKey_fetchInCoreAux___spec__7___boxed(ptr noundef %0, ptr noundef %1, ptr noundef %2) local_unnamed_addr #1 {
  tail call void @lean_inc_heartbeat() #5
  %4 = tail call noalias ptr @mi_malloc_small(i64 noundef 24) #5
  %5 = icmp eq ptr %4, null
  br i1 %5, label %6, label %l_IO_withStdin___at___private_Lake_Build_Target_Fetch_0__Lake_PartialBuildKey_fetchInCoreAux___spec__7.exit

6:                                                ; preds = %3
  tail call void @lean_internal_panic_out_of_memory() #6
  unreachable

l_IO_withStdin___at___private_Lake_Build_Target_Fetch_0__Lake_PartialBuildKey_fetchInCoreAux___spec__7.exit: ; preds = %3
  %7 = getelementptr inbounds nuw i8, ptr %4, i64 4
  store i32 1, ptr %4, align 4, !tbaa !4
  store i32 -184549352, ptr %7, align 4
  %8 = getelementptr inbounds nuw i8, ptr %4, i64 8
  store ptr @l_IO_withStdin___at___private_Lake_Build_Target_Fetch_0__Lake_PartialBuildKey_fetchInCoreAux___spec__7___rarg, ptr %8, align 8, !tbaa !10
  %9 = getelementptr inbounds nuw i8, ptr %4, i64 16
  store i16 8, ptr %9, align 8, !tbaa !15
  %10 = getelementptr inbounds nuw i8, ptr %4, i64 18
  store i16 0, ptr %10, align 2, !tbaa !15
  %11 = ptrtoint ptr %2 to i64
  %12 = and i64 %11, 1
  %.not = icmp eq i64 %12, 0
  br i1 %.not, label %13, label %lean_dec.exit8

13:                                               ; preds = %l_IO_withStdin___at___private_Lake_Build_Target_Fetch_0__Lake_PartialBuildKey_fetchInCoreAux___spec__7.exit
  %14 = load i32, ptr %2, align 4, !tbaa !4
  %15 = icmp sgt i32 %14, 1
  br i1 %15, label %16, label %18, !prof !9

16:                                               ; preds = %13
  %17 = add nsw i32 %14, -1
  store i32 %17, ptr %2, align 4, !tbaa !4
  br label %lean_dec.exit8

18:                                               ; preds = %13
  %.not.i = icmp eq i32 %14, 0
  br i1 %.not.i, label %lean_dec.exit8, label %19

19:                                               ; preds = %18
  tail call void @lean_dec_ref_cold(ptr noundef nonnull %2) #5
  br label %lean_dec.exit8

lean_dec.exit8:                                   ; preds = %19, %18, %16, %l_IO_withStdin___at___private_Lake_Build_Target_Fetch_0__Lake_PartialBuildKey_fetchInCoreAux___spec__7.exit
  %20 = ptrtoint ptr %1 to i64
  %21 = and i64 %20, 1
  %.not13 = icmp eq i64 %21, 0
  br i1 %.not13, label %22, label %lean_dec.exit7

22:                                               ; preds = %lean_dec.exit8
  %23 = load i32, ptr %1, align 4, !tbaa !4
  %24 = icmp sgt i32 %23, 1
  br i1 %24, label %25, label %27, !prof !9

25:                                               ; preds = %22
  %26 = add nsw i32 %23, -1
  store i32 %26, ptr %1, align 4, !tbaa !4
  br label %lean_dec.exit7

27:                                               ; preds = %22
  %.not.i9 = icmp eq i32 %23, 0
  br i1 %.not.i9, label %lean_dec.exit7, label %28

28:                                               ; preds = %27
  tail call void @lean_dec_ref_cold(ptr noundef nonnull %1) #5
  br label %lean_dec.exit7

lean_dec.exit7:                                   ; preds = %28, %27, %25, %lean_dec.exit8
  %29 = ptrtoint ptr %0 to i64
  %30 = and i64 %29, 1
  %.not14 = icmp eq i64 %30, 0
  br i1 %.not14, label %31, label %lean_dec.exit

31:                                               ; preds = %lean_dec.exit7
  %32 = load i32, ptr %0, align 4, !tbaa !4
  %33 = icmp sgt i32 %32, 1
  br i1 %33, label %34, label %36, !prof !9

34:                                               ; preds = %31
  %35 = add nsw i32 %32, -1
  store i32 %35, ptr %0, align 4, !tbaa !4
  br label %lean_dec.exit

36:                                               ; preds = %31
  %.not.i11 = icmp eq i32 %32, 0
  br i1 %.not.i11, label %lean_dec.exit, label %37

37:                                               ; preds = %36
  tail call void @lean_dec_ref_cold(ptr noundef nonnull %0) #5
  br label %lean_dec.exit

lean_dec.exit:                                    ; preds = %37, %36, %34, %lean_dec.exit7
  ret ptr %4
}